target datalayout = "e-m:e-p270:32:32-p271:32:32-p272:64:64-i64:64-i128:128-f80:128-n8:16:32:64-S128"
target triple = "x86_64-pc-linux-gnu"

%"struct.vcpkg::StringView" = type { ptr, i64 }
%"struct.vcpkg::Optional" = type { %"struct.vcpkg::details::OptionalStorage" }
%"struct.vcpkg::details::OptionalStorage" = type { i8, %union.anon }
%union.anon = type { i32 }

@.str = private unnamed_addr constant [7 x i8] c"SHA256\00", align 1
@.str.1 = private unnamed_addr constant [7 x i8] c"SHA512\00", align 1

; Function Attrs: mustprogress nounwind uwtable
define linkonce_odr dso_local void @_ZN5vcpkg7details15OptionalStorageINS_4Hash9AlgorithmELb1EEC2Ev(ptr noundef nonnull align 4 dereferenceable(8) %0) unnamed_addr #0 comdat align 2 {
  %2 = alloca ptr, align 8
  store ptr %0, ptr %2, align 8
  %3 = load ptr, ptr %2, align 8
  %4 = getelementptr inbounds %"struct.vcpkg::details::OptionalStorage", ptr %3, i32 0, i32 0
  store i8 0, ptr %4, align 4
  %5 = getelementptr inbounds %"struct.vcpkg::details::OptionalStorage", ptr %3, i32 0, i32 1
  store i8 0, ptr %5, align 4
  ret void
}

; Function Attrs: mustprogress nounwind uwtable
define linkonce_odr dso_local void @_ZN5vcpkg7details15OptionalStorageINS_4Hash9AlgorithmELb1EEC2EOS3_(ptr noundef nonnull align 4 dereferenceable(8) %0, ptr noundef nonnull align 4 dereferenceable(4) %1) unnamed_addr #0 comdat align 2 {
  %3 = alloca ptr, align 8
  %4 = alloca ptr, align 8
  store ptr %0, ptr %3, align 8
  store ptr %1, ptr %4, align 8
  %5 = load ptr, ptr %3, align 8
  %6 = getelementptr inbounds %"struct.vcpkg::details::OptionalStorage", ptr %5, i32 0, i32 0
  store i8 1, ptr %6, align 4
  %7 = getelementptr inbounds %"struct.vcpkg::details::OptionalStorage", ptr %5, i32 0, i32 1
  %8 = load ptr, ptr %4, align 8
  %9 = load i32, ptr %8, align 4
  store i32 %9, ptr %7, align 4
  ret void
}

; Function Attrs: mustprogress nounwind uwtable
define linkonce_odr dso_local void @_ZN5vcpkg8OptionalINS_4Hash9AlgorithmEEC2Ev(ptr noundef nonnull align 4 dereferenceable(8) %0) unnamed_addr #0 comdat align 2 {
  %2 = alloca ptr, align 8
  store ptr %0, ptr %2, align 8
  %3 = load ptr, ptr %2, align 8
  call void @_ZN5vcpkg7details15OptionalStorageINS_4Hash9AlgorithmELb1EEC2Ev(ptr noundef nonnull align 4 dereferenceable(8) %3) #16
  ret void
}

; Function Attrs: mustprogress nounwind uwtable
define linkonce_odr dso_local void @_ZN5vcpkg8OptionalINS_4Hash9AlgorithmEEC2IS2_TnNSt9enable_ifIXaantsr3stdE9is_same_vINSt5decayIT_E4typeES3_Esr3stdE18is_constructible_vINS_7details15OptionalStorageIS2_Lb1EEES7_EEiE4typeELi0EEEOS7_(ptr noundef nonnull align 4 dereferenceable(8) %0, ptr noundef nonnull align 4 dereferenceable(4) %1) unnamed_addr #0 comdat align 2 {
  %3 = alloca ptr, align 8
  %4 = alloca ptr, align 8
  store ptr %0, ptr %3, align 8
  store ptr %1, ptr %4, align 8
  %5 = load ptr, ptr %3, align 8
  %6 = load ptr, ptr %4, align 8
  call void @_ZN5vcpkg7details15OptionalStorageINS_4Hash9AlgorithmELb1EEC2EOS3_(ptr noundef nonnull align 4 dereferenceable(8) %5, ptr noundef nonnull align 4 dereferenceable(4) %6) #16
  ret void
}

; Function Attrs: mustprogress nounwind uwtable
define linkonce_odr dso_local void @_ZN5vcpkg10StringViewC2EPKc(ptr noundef nonnull align 8 dereferenceable(16) %0, ptr noundef %1) unnamed_addr #0 comdat align 2 {
  %3 = alloca ptr, align 8
  %4 = alloca ptr, align 8
  store ptr %0, ptr %3, align 8
  store ptr %1, ptr %4, align 8
  %5 = load ptr, ptr %3, align 8
  %6 = getelementptr inbounds %"struct.vcpkg::StringView", ptr %5, i32 0, i32 0
  %7 = load ptr, ptr %4, align 8
  store ptr %7, ptr %6, align 8
  %8 = getelementptr inbounds %"struct.vcpkg::StringView", ptr %5, i32 0, i32 1
  %9 = load ptr, ptr %4, align 8
  %10 = call i64 @strlen(ptr noundef %9) #18
  store i64 %10, ptr %8, align 8
  ret void
}

; Function Attrs: mustprogress nounwind uwtable
define dso_local void @_ZN5vcpkg4Hash21algorithm_from_stringENS_10StringViewE(ptr dead_on_unwind noalias writable sret(%"struct.vcpkg::Optional") align 4 %0, ptr %1, i64 %2) #0 personality ptr @__gxx_personality_v0 {
  %4 = alloca ptr, align 8
  %5 = alloca %"struct.vcpkg::StringView", align 8
  %6 = alloca %"struct.vcpkg::StringView", align 8
  %7 = alloca %"struct.vcpkg::StringView", align 8
  %8 = alloca i32, align 4
  %9 = alloca %"struct.vcpkg::StringView", align 8
  %10 = alloca %"struct.vcpkg::StringView", align 8
  %11 = alloca i32, align 4
  store ptr %0, ptr %4, align 8
  %12 = getelementptr inbounds { ptr, i64 }, ptr %5, i32 0, i32 0
  store ptr %1, ptr %12, align 8
  %13 = getelementptr inbounds { ptr, i64 }, ptr %5, i32 0, i32 1
  store i64 %2, ptr %13, align 8
  call void @llvm.memcpy.p0.p0.i64(ptr align 8 %6, ptr align 8 %5, i64 16, i1 false)
  call void @_ZN5vcpkg10StringViewC2EPKc(ptr noundef nonnull align 8 dereferenceable(16) %7, ptr noundef @.str) #16
  %14 = getelementptr inbounds { ptr, i64 }, ptr %6, i32 0, i32 0
  %15 = load ptr, ptr %14, align 8
  %16 = getelementptr inbounds { ptr, i64 }, ptr %6, i32 0, i32 1
  %17 = load i64, ptr %16, align 8
  %18 = getelementptr inbounds { ptr, i64 }, ptr %7, i32 0, i32 0
  %19 = load ptr, ptr %18, align 8
  %20 = getelementptr inbounds { ptr, i64 }, ptr %7, i32 0, i32 1
  %21 = load i64, ptr %20, align 8
  %22 = invoke noundef zeroext i1 @_ZN5vcpkg7Strings29case_insensitive_ascii_equalsENS_10StringViewES1_(ptr %15, i64 %17, ptr %19, i64 %21)
          to label %23 unwind label %39

23:                                               ; preds = %3
  br i1 %22, label %24, label %25

24:                                               ; preds = %23
  store i32 0, ptr %8, align 4
  call void @_ZN5vcpkg8OptionalINS_4Hash9AlgorithmEEC2IS2_TnNSt9enable_ifIXaantsr3stdE9is_same_vINSt5decayIT_E4typeES3_Esr3stdE18is_constructible_vINS_7details15OptionalStorageIS2_Lb1EEES7_EEiE4typeELi0EEEOS7_(ptr noundef nonnull align 4 dereferenceable(8) %0, ptr noundef nonnull align 4 dereferenceable(4) %8) #16
  br label %38

25:                                               ; preds = %23
  call void @llvm.memcpy.p0.p0.i64(ptr align 8 %9, ptr align 8 %5, i64 16, i1 false)
  call void @_ZN5vcpkg10StringViewC2EPKc(ptr noundef nonnull align 8 dereferenceable(16) %10, ptr noundef @.str.1) #16
  %26 = getelementptr inbounds { ptr, i64 }, ptr %9, i32 0, i32 0
  %27 = load ptr, ptr %26, align 8
  %28 = getelementptr inbounds { ptr, i64 }, ptr %9, i32 0, i32 1
  %29 = load i64, ptr %28, align 8
  %30 = getelementptr inbounds { ptr, i64 }, ptr %10, i32 0, i32 0
  %31 = load ptr, ptr %30, align 8
  %32 = getelementptr inbounds { ptr, i64 }, ptr %10, i32 0, i32 1
  %33 = load i64, ptr %32, align 8
  %34 = invoke noundef zeroext i1 @_ZN5vcpkg7Strings29case_insensitive_ascii_equalsENS_10StringViewES1_(ptr %27, i64 %29, ptr %31, i64 %33)
          to label %35 unwind label %39

35:                                               ; preds = %25
  br i1 %34, label %36, label %37

36:                                               ; preds = %35
  store i32 1, ptr %11, align 4
  call void @_ZN5vcpkg8OptionalINS_4Hash9AlgorithmEEC2IS2_TnNSt9enable_ifIXaantsr3stdE9is_same_vINSt5decayIT_E4typeES3_Esr3stdE18is_constructible_vINS_7details15OptionalStorageIS2_Lb1EEES7_EEiE4typeELi0EEEOS7_(ptr noundef nonnull align 4 dereferenceable(8) %0, ptr noundef nonnull align 4 dereferenceable(4) %11) #16
  br label %38

37:                                               ; preds = %35
  call void @_ZN5vcpkg8OptionalINS_4Hash9AlgorithmEEC2Ev(ptr noundef nonnull align 4 dereferenceable(8) %0) #16
  br label %38

38:                                               ; preds = %37, %36, %24
  ret void

39:                                               ; preds = %25, %3
  %40 = landingpad { ptr, i32 }
          catch ptr null
  %41 = extractvalue { ptr, i32 } %40, 0
  call void @__clang_call_terminate(ptr %41) #17
  unreachable
}