; Function Attrs: mustprogress nounwind uwtable
define dso_local void @_ZN5vcpkg4Hash21algorithm_from_stringENS_10StringViewE(ptr dead_on_unwind noalias nocapture writable writeonly sret(%"struct.vcpkg::Optional") align 4 %0, ptr %1, i64 %2) local_unnamed_addr #0 personality ptr @__gxx_personality_v0 {
  %4 = invoke noundef zeroext i1 @_ZN5vcpkg7Strings29case_insensitive_ascii_equalsENS_10StringViewES1_(ptr %1, i64 %2, ptr nonnull @.str, i64 6)
          to label %5 unwind label %15

5:                                                ; preds = %3
  br i1 %4, label %6, label %8

6:                                                ; preds = %5
  store i8 1, ptr %0, align 4
  %7 = getelementptr inbounds i8, ptr %0, i64 4
  store i32 0, ptr %7, align 4
  br label %14

8:                                                ; preds = %5
  %9 = invoke noundef zeroext i1 @_ZN5vcpkg7Strings29case_insensitive_ascii_equalsENS_10StringViewES1_(ptr %1, i64 %2, ptr nonnull @.str.1, i64 6)
          to label %10 unwind label %15

10:                                               ; preds = %8
  %11 = getelementptr inbounds i8, ptr %0, i64 4
  br i1 %9, label %12, label %13

12:                                               ; preds = %10
  store i8 1, ptr %0, align 4
  store i32 1, ptr %11, align 4
  br label %14

13:                                               ; preds = %10
  store i8 0, ptr %0, align 4
  store i8 0, ptr %11, align 4
  br label %14

14:                                               ; preds = %13, %12, %6
  ret void

15:                                               ; preds = %8, %3
  %16 = landingpad { ptr, i32 }
          catch ptr null
  %17 = extractvalue { ptr, i32 } %16, 0
  tail call void @__clang_call_terminate(ptr %17) #20
  unreachable
}